; Function Attrs: nounwind uwtable
define range(i32 -20, 1) i32 @IDASetNoInactiveRootWarn(ptr noundef writeonly %0) local_unnamed_addr #0 {
  %2 = icmp eq ptr %0, null
  br i1 %2, label %3, label %4

3:                                                ; preds = %1
  tail call void (ptr, i32, i32, ptr, ptr, ptr, ...) @IDAProcessError(ptr noundef null, i32 noundef -20, i32 noundef 689, ptr noundef nonnull @__func__.IDASetNoInactiveRootWarn, ptr noundef nonnull @.str, ptr noundef nonnull @.str.1) #9
  br label %6

4:                                                ; preds = %1
  %5 = getelementptr inbounds nuw i8, ptr %0, i64 2032
  store i32 0, ptr %5, align 8
  br label %6

6:                                                ; preds = %4, %3
  %.0 = phi i32 [ -20, %3 ], [ 0, %4 ]
  ret i32 %.0
}